; Function Attrs: nounwind uwtable
define internal void @_newest_button_clicked(ptr readnone captures(none) %0, ptr noundef initializes((32, 40)) %1) #0 {
  %3 = load ptr, ptr %1, align 8, !tbaa !66
  %4 = tail call ptr @gtk_tree_view_get_selection(ptr noundef %3) #13
  %5 = getelementptr inbounds nuw i8, ptr %1, i64 32
  store ptr null, ptr %5, align 8, !tbaa !71
  %6 = getelementptr inbounds nuw i8, ptr %1, i64 24
  %7 = load ptr, ptr %6, align 8, !tbaa !72
  %8 = tail call i64 @gtk_spinner_get_type() #18
  %9 = tail call ptr @g_type_check_instance_cast(ptr noundef %7, i64 noundef %8) #13
  tail call void @gtk_spinner_start(ptr noundef %9) #13
  tail call void @gtk_tree_selection_selected_foreach(ptr noundef %4, ptr noundef nonnull @sync_newest_to_oldest, ptr noundef nonnull %1) #13
  %10 = getelementptr i8, ptr %1, i64 8
  %.val = load ptr, ptr %10, align 8, !tbaa !73
  %.val8 = load ptr, ptr %5, align 8, !tbaa !71
  tail call fastcc void @_delete_selected_rows(ptr %.val, ptr %.val8)
  %11 = load ptr, ptr %6, align 8, !tbaa !72
  %12 = tail call ptr @g_type_check_instance_cast(ptr noundef %11, i64 noundef %8) #13
  tail call void @gtk_spinner_stop(ptr noundef %12) #13
  ret void
}